; ModuleID = '7/982.c'
source_filename = "7/982.c"
target datalayout = "e-m:e-p270:32:32-p271:32:32-p272:64:64-i64:64-f80:128-n8:16:32:64-S128"
target triple = "x86_64-pc-linux-gnu"

@.str = private unnamed_addr constant [3 x i8] c"%s\00", align 1
@.str.1 = private unnamed_addr constant [4 x i8] c"%s\0A\00", align 1

; Function Attrs: noinline nounwind uwtable
define dso_local i32 @main() #0 {
  %1 = alloca i32, align 4
  %2 = alloca i32, align 4
  %3 = alloca i32, align 4
  %4 = alloca i32, align 4
  %5 = alloca i32, align 4
  %6 = alloca i32, align 4
  %7 = alloca i32, align 4
  %8 = alloca i32, align 4
  %9 = alloca [256 x i8], align 16
  %10 = alloca [256 x i8], align 16
  %11 = alloca [256 x i8], align 16
  %12 = alloca i8, align 1
  store i32 0, i32* %1, align 4
  %13 = getelementptr inbounds [256 x i8], [256 x i8]* %9, i64 0, i64 0
  %14 = call i32 (i8*, ...) @__isoc99_scanf(i8* getelementptr inbounds ([3 x i8], [3 x i8]* @.str, i64 0, i64 0), i8* %13)
  %15 = getelementptr inbounds [256 x i8], [256 x i8]* %10, i64 0, i64 0
  %16 = call i32 (i8*, ...) @__isoc99_scanf(i8* getelementptr inbounds ([3 x i8], [3 x i8]* @.str, i64 0, i64 0), i8* %15)
  %17 = getelementptr inbounds [256 x i8], [256 x i8]* %11, i64 0, i64 0
  %18 = call i32 (i8*, ...) @__isoc99_scanf(i8* getelementptr inbounds ([3 x i8], [3 x i8]* @.str, i64 0, i64 0), i8* %17)
  %19 = getelementptr inbounds [256 x i8], [256 x i8]* %9, i64 0, i64 0
  %20 = call i64 @strlen(i8* %19) #3
  %21 = trunc i64 %20 to i32
  store i32 %21, i32* %2, align 4
  %22 = getelementptr inbounds [256 x i8], [256 x i8]* %10, i64 0, i64 0
  %23 = call i64 @strlen(i8* %22) #3
  %24 = trunc i64 %23 to i32
  store i32 %24, i32* %3, align 4
  %25 = getelementptr inbounds [256 x i8], [256 x i8]* %10, i64 0, i64 0
  %26 = load i8, i8* %25, align 16
  store i8 %26, i8* %12, align 1
  store i32 0, i32* %5, align 4
  br label %27

27:                                               ; preds = %104, %0
  %28 = load i32, i32* %5, align 4
  %29 = load i32, i32* %2, align 4
  %30 = load i32, i32* %3, align 4
  %31 = sub nsw i32 %29, %30
  %32 = icmp sle i32 %28, %31
  br i1 %32, label %33, label %107

33:                                               ; preds = %27
  store i32 0, i32* %7, align 4
  %34 = load i32, i32* %5, align 4
  %35 = sext i32 %34 to i64
  %36 = getelementptr inbounds [256 x i8], [256 x i8]* %9, i64 0, i64 %35
  %37 = load i8, i8* %36, align 1
  %38 = sext i8 %37 to i32
  %39 = load i8, i8* %12, align 1
  %40 = sext i8 %39 to i32
  %41 = icmp eq i32 %38, %40
  br i1 %41, label %42, label %103

42:                                               ; preds = %33
  %43 = load i32, i32* %5, align 4
  store i32 %43, i32* %6, align 4
  br label %44

44:                                               ; preds = %69, %42
  %45 = load i32, i32* %6, align 4
  %46 = load i32, i32* %5, align 4
  %47 = load i32, i32* %3, align 4
  %48 = add nsw i32 %46, %47
  %49 = sub nsw i32 %48, 1
  %50 = icmp sle i32 %45, %49
  br i1 %50, label %51, label %72

51:                                               ; preds = %44
  %52 = load i32, i32* %6, align 4
  %53 = sext i32 %52 to i64
  %54 = getelementptr inbounds [256 x i8], [256 x i8]* %9, i64 0, i64 %53
  %55 = load i8, i8* %54, align 1
  %56 = sext i8 %55 to i32
  %57 = load i32, i32* %6, align 4
  %58 = load i32, i32* %5, align 4
  %59 = sub nsw i32 %57, %58
  %60 = sext i32 %59 to i64
  %61 = getelementptr inbounds [256 x i8], [256 x i8]* %10, i64 0, i64 %60
  %62 = load i8, i8* %61, align 1
  %63 = sext i8 %62 to i32
  %64 = icmp eq i32 %56, %63
  br i1 %64, label %65, label %68

65:                                               ; preds = %51
  %66 = load i32, i32* %7, align 4
  %67 = add nsw i32 %66, 1
  store i32 %67, i32* %7, align 4
  br label %68

68:                                               ; preds = %65, %51
  br label %69

69:                                               ; preds = %68
  %70 = load i32, i32* %6, align 4
  %71 = add nsw i32 %70, 1
  store i32 %71, i32* %6, align 4
  br label %44

72:                                               ; preds = %44
  %73 = load i32, i32* %7, align 4
  %74 = load i32, i32* %3, align 4
  %75 = icmp eq i32 %73, %74
  br i1 %75, label %76, label %99

76:                                               ; preds = %72
  store i32 0, i32* %8, align 4
  br label %77

77:                                               ; preds = %92, %76
  %78 = load i32, i32* %8, align 4
  %79 = load i32, i32* %3, align 4
  %80 = sub nsw i32 %79, 1
  %81 = icmp sle i32 %78, %80
  br i1 %81, label %82, label %95

82:                                               ; preds = %77
  %83 = load i32, i32* %8, align 4
  %84 = sext i32 %83 to i64
  %85 = getelementptr inbounds [256 x i8], [256 x i8]* %11, i64 0, i64 %84
  %86 = load i8, i8* %85, align 1
  %87 = load i32, i32* %5, align 4
  %88 = load i32, i32* %8, align 4
  %89 = add nsw i32 %87, %88
  %90 = sext i32 %89 to i64
  %91 = getelementptr inbounds [256 x i8], [256 x i8]* %9, i64 0, i64 %90
  store i8 %86, i8* %91, align 1
  br label %92

92:                                               ; preds = %82
  %93 = load i32, i32* %8, align 4
  %94 = add nsw i32 %93, 1
  store i32 %94, i32* %8, align 4
  br label %77

95:                                               ; preds = %77
  %96 = load i32, i32* %2, align 4
  %97 = load i32, i32* %3, align 4
  %98 = sub nsw i32 %96, %97
  store i32 %98, i32* %5, align 4
  br label %102

99:                                               ; preds = %72
  %100 = load i32, i32* %5, align 4
  %101 = add nsw i32 %100, 1
  store i32 %101, i32* %5, align 4
  br label %102

102:                                              ; preds = %99, %95
  br label %103

103:                                              ; preds = %102, %33
  br label %104

104:                                              ; preds = %103
  %105 = load i32, i32* %5, align 4
  %106 = add nsw i32 %105, 1
  store i32 %106, i32* %5, align 4
  br label %27

107:                                              ; preds = %27
  %108 = getelementptr inbounds [256 x i8], [256 x i8]* %9, i64 0, i64 0
  %109 = call i32 (i8*, ...) @printf(i8* getelementptr inbounds ([4 x i8], [4 x i8]* @.str.1, i64 0, i64 0), i8* %108)
  ret i32 0
}

declare dso_local i32 @__isoc99_scanf(i8*, ...) #1

; Function Attrs: nounwind readonly
declare dso_local i64 @strlen(i8*) #2

declare dso_local i32 @printf(i8*, ...) #1


!llvm.module.flags = !{!0}
!llvm.ident = !{!1}

!0 = !{i32 1, !"wchar_size", i32 4}
!1 = !{!"clang version 10.0.0-4ubuntu1 "}
